target datalayout = "e-m:e-p270:32:32-p271:32:32-p272:64:64-i64:64-i128:128-f80:128-n8:16:32:64-S128"
target triple = "x86_64-pc-linux-gnu"

%class.QDomDocument = type { %class.QDomNode }
%class.QDomNode = type { ptr }
%class.QFile = type { %class.QFileDevice }
%class.QFileDevice = type { %class.QIODevice }
%class.QIODevice = type { %class.QObject }
%class.QObject = type { ptr, %class.QScopedPointer }
%class.QScopedPointer = type { ptr }
%class.QFlags = type { i32 }
%class.QTextStream = type { ptr, %class.QScopedPointer.1 }
%class.QScopedPointer.1 = type { ptr }

; Function Attrs: mustprogress nounwind uwtable
define linkonce_odr void @_ZN6QFlagsIN9QIODevice12OpenModeFlagEEC2ES1_(ptr noundef nonnull align 4 dereferenceable(4) %0, i32 noundef %1) unnamed_addr #4 comdat align 2 {
  %3 = alloca ptr, align 8
  %4 = alloca i32, align 4
  store ptr %0, ptr %3, align 8
  store i32 %1, ptr %4, align 4
  %5 = load ptr, ptr %3, align 8
  %6 = getelementptr inbounds %class.QFlags, ptr %5, i32 0, i32 0
  %7 = load i32, ptr %4, align 4
  store i32 %7, ptr %6, align 4
  ret void
}

; Function Attrs: mustprogress uwtable
define noundef zeroext i1 @_ZNK12FilterScript4saveE7QString(ptr noundef nonnull align 8 dereferenceable(24) %0, ptr noundef %1) #5 align 2 personality ptr @__gxx_personality_v0 {
  %3 = alloca ptr, align 8
  %4 = alloca ptr, align 8
  %5 = alloca %class.QDomDocument, align 8
  %6 = alloca %class.QFile, align 8
  %7 = alloca ptr, align 8
  %8 = alloca i32, align 4
  %9 = alloca %class.QFlags, align 4
  %10 = alloca %class.QTextStream, align 8
  store ptr %0, ptr %3, align 8
  store ptr %1, ptr %4, align 8
  %11 = load ptr, ptr %3, align 8
  call void @_ZNK12FilterScript6xmlDocEv(ptr dead_on_unwind writable sret(%class.QDomDocument) align 8 %5, ptr noundef nonnull align 8 dereferenceable(24) %11)
  invoke void @_ZN5QFileC1ERK7QString(ptr noundef nonnull align 8 dereferenceable(16) %6, ptr noundef nonnull align 8 dereferenceable(8) %1)
          to label %12 unwind label %20

12:                                               ; preds = %2
  call void @_ZN6QFlagsIN9QIODevice12OpenModeFlagEEC2ES1_(ptr noundef nonnull align 4 dereferenceable(4) %9, i32 noundef 2) #3
  %13 = getelementptr inbounds %class.QFlags, ptr %9, i32 0, i32 0
  %14 = load i32, ptr %13, align 4
  %15 = invoke noundef zeroext i1 @_ZN5QFile4openE6QFlagsIN9QIODevice12OpenModeFlagEE(ptr noundef nonnull align 8 dereferenceable(16) %6, i32 %14)
          to label %16 unwind label %24

16:                                               ; preds = %12
  invoke void @_ZN11QTextStreamC1EP9QIODevice(ptr noundef nonnull align 8 dereferenceable(16) %10, ptr noundef %6)
          to label %17 unwind label %24

17:                                               ; preds = %16
  invoke void @_ZNK8QDomNode4saveER11QTextStreamiNS_14EncodingPolicyE(ptr noundef nonnull align 8 dereferenceable(8) %5, ptr noundef nonnull align 8 dereferenceable(16) %10, i32 noundef 1, i32 noundef 1)
          to label %18 unwind label %28

18:                                               ; preds = %17
  invoke void @_ZN11QFileDevice5closeEv(ptr noundef nonnull align 8 dereferenceable(16) %6)
          to label %19 unwind label %28

19:                                               ; preds = %18
  call void @_ZN11QTextStreamD1Ev(ptr noundef nonnull align 8 dereferenceable(16) %10) #3
  call void @_ZN5QFileD1Ev(ptr noundef nonnull align 8 dereferenceable(16) %6) #3
  call void @_ZN12QDomDocumentD1Ev(ptr noundef nonnull align 8 dereferenceable(8) %5) #3
  ret i1 true

20:                                               ; preds = %2
  %21 = landingpad { ptr, i32 }
          cleanup
  %22 = extractvalue { ptr, i32 } %21, 0
  store ptr %22, ptr %7, align 8
  %23 = extractvalue { ptr, i32 } %21, 1
  store i32 %23, ptr %8, align 4
  br label %33

24:                                               ; preds = %16, %12
  %25 = landingpad { ptr, i32 }
          cleanup
  %26 = extractvalue { ptr, i32 } %25, 0
  store ptr %26, ptr %7, align 8
  %27 = extractvalue { ptr, i32 } %25, 1
  store i32 %27, ptr %8, align 4
  br label %32

28:                                               ; preds = %18, %17
  %29 = landingpad { ptr, i32 }
          cleanup
  %30 = extractvalue { ptr, i32 } %29, 0
  store ptr %30, ptr %7, align 8
  %31 = extractvalue { ptr, i32 } %29, 1
  store i32 %31, ptr %8, align 4
  call void @_ZN11QTextStreamD1Ev(ptr noundef nonnull align 8 dereferenceable(16) %10) #3
  br label %32

32:                                               ; preds = %28, %24
  call void @_ZN5QFileD1Ev(ptr noundef nonnull align 8 dereferenceable(16) %6) #3
  br label %33

33:                                               ; preds = %32, %20
  call void @_ZN12QDomDocumentD1Ev(ptr noundef nonnull align 8 dereferenceable(8) %5) #3
  br label %34

34:                                               ; preds = %33
  %35 = load ptr, ptr %7, align 8
  %36 = load i32, ptr %8, align 4
  %37 = insertvalue { ptr, i32 } poison, ptr %35, 0
  %38 = insertvalue { ptr, i32 } %37, i32 %36, 1
  resume { ptr, i32 } %38
}