; Function Attrs: mustprogress uwtable
define noundef zeroext i1 @_ZNK12FilterScript4saveE7QString(ptr nocapture noundef nonnull readonly align 8 dereferenceable(24) %0, ptr noundef %1) local_unnamed_addr #3 align 2 personality ptr @__gxx_personality_v0 {
  %3 = alloca %class.QDomDocument, align 8
  %4 = alloca %class.QFile, align 8
  %5 = alloca %class.QTextStream, align 8
  call void @_ZNK12FilterScript6xmlDocEv(ptr dead_on_unwind nonnull writable sret(%class.QDomDocument) align 8 %3, ptr noundef nonnull align 8 dereferenceable(24) %0)
  invoke void @_ZN5QFileC1ERK7QString(ptr noundef nonnull align 8 dereferenceable(16) %4, ptr noundef nonnull align 8 dereferenceable(8) %1)
          to label %6 unwind label %12

6:                                                ; preds = %2
  %7 = invoke noundef zeroext i1 @_ZN5QFile4openE6QFlagsIN9QIODevice12OpenModeFlagEE(ptr noundef nonnull align 8 dereferenceable(16) %4, i32 2)
          to label %8 unwind label %14

8:                                                ; preds = %6
  invoke void @_ZN11QTextStreamC1EP9QIODevice(ptr noundef nonnull align 8 dereferenceable(16) %5, ptr noundef nonnull %4)
          to label %9 unwind label %14

9:                                                ; preds = %8
  invoke void @_ZNK8QDomNode4saveER11QTextStreamiNS_14EncodingPolicyE(ptr noundef nonnull align 8 dereferenceable(8) %3, ptr noundef nonnull align 8 dereferenceable(16) %5, i32 noundef 1, i32 noundef 1)
          to label %10 unwind label %16

10:                                               ; preds = %9
  invoke void @_ZN11QFileDevice5closeEv(ptr noundef nonnull align 8 dereferenceable(16) %4)
          to label %11 unwind label %16

11:                                               ; preds = %10
  call void @_ZN11QTextStreamD1Ev(ptr noundef nonnull align 8 dereferenceable(16) %5) #10
  call void @_ZN5QFileD1Ev(ptr noundef nonnull align 8 dereferenceable(16) %4) #10
  call void @_ZN12QDomDocumentD1Ev(ptr noundef nonnull align 8 dereferenceable(8) %3) #10
  ret i1 true

12:                                               ; preds = %2
  %13 = landingpad { ptr, i32 }
          cleanup
  br label %19

14:                                               ; preds = %8, %6
  %15 = landingpad { ptr, i32 }
          cleanup
  br label %18

16:                                               ; preds = %10, %9
  %17 = landingpad { ptr, i32 }
          cleanup
  call void @_ZN11QTextStreamD1Ev(ptr noundef nonnull align 8 dereferenceable(16) %5) #10
  br label %18

18:                                               ; preds = %16, %14
  %.pn = phi { ptr, i32 } [ %17, %16 ], [ %15, %14 ]
  call void @_ZN5QFileD1Ev(ptr noundef nonnull align 8 dereferenceable(16) %4) #10
  br label %19

19:                                               ; preds = %18, %12
  %.pn.pn = phi { ptr, i32 } [ %.pn, %18 ], [ %13, %12 ]
  call void @_ZN12QDomDocumentD1Ev(ptr noundef nonnull align 8 dereferenceable(8) %3) #10
  resume { ptr, i32 } %.pn.pn
}